; Function Attrs: mustprogress uwtable
define internal fastcc void @_ZN9grpc_core12_GLOBAL__N_110JsonWriter15ContainerBeginsENS_12experimental4Json4TypeE(ptr noundef nonnull align 8 dereferenceable(48) %0, i32 noundef range(i32 4, 6) %1) unnamed_addr #0 align 2 personality ptr @__gxx_personality_v0 {
  %3 = getelementptr inbounds nuw i8, ptr %0, i64 9
  %4 = load i8, ptr %3, align 1, !tbaa !19, !range !38, !noundef !39
  %5 = trunc nuw i8 %4 to i1
  br i1 %5, label %7, label %6

6:                                                ; preds = %2
  tail call fastcc void @_ZN9grpc_core12_GLOBAL__N_110JsonWriter8ValueEndEv(ptr noundef nonnull align 8 dereferenceable(48) %0)
  br label %7

7:                                                ; preds = %6, %2
  tail call fastcc void @_ZN9grpc_core12_GLOBAL__N_110JsonWriter12OutputIndentEv(ptr noundef nonnull align 8 dereferenceable(48) %0)
  %8 = getelementptr inbounds nuw i8, ptr %0, i64 16
  %9 = load ptr, ptr %8, align 8, !tbaa !23
  %10 = getelementptr inbounds nuw i8, ptr %0, i64 32
  %11 = icmp eq ptr %9, %10
  %12 = getelementptr inbounds nuw i8, ptr %0, i64 24
  %13 = load i64, ptr %12, align 8, !tbaa !21
  br i1 %11, label %_ZNKSt7__cxx1112basic_stringIcSt11char_traitsIcESaIcEE8capacityEv.exit.i.i, label %_ZNKSt7__cxx1112basic_stringIcSt11char_traitsIcESaIcEE8capacityEv.exit.i.thread.i

_ZNKSt7__cxx1112basic_stringIcSt11char_traitsIcESaIcEE8capacityEv.exit.i.i: ; preds = %7
  %14 = icmp ult i64 %13, 16
  tail call void @llvm.assume(i1 %14)
  %.not.i.i = icmp eq i64 %13, 15
  br i1 %.not.i.i, label %_ZNKSt7__cxx1112basic_stringIcSt11char_traitsIcESaIcEE8capacityEv.exit7.i.i, label %_ZN9grpc_core12_GLOBAL__N_110JsonWriter11OutputCheckEm.exit.i

_ZNKSt7__cxx1112basic_stringIcSt11char_traitsIcESaIcEE8capacityEv.exit.i.thread.i: ; preds = %7
  %15 = load i64, ptr %10, align 8
  %.not.i2.i = icmp eq i64 %15, %13
  br i1 %.not.i2.i, label %.thread.i, label %_ZN9grpc_core12_GLOBAL__N_110JsonWriter11OutputCheckEm.exit.i

.thread.i:                                        ; preds = %_ZNKSt7__cxx1112basic_stringIcSt11char_traitsIcESaIcEE8capacityEv.exit.i.thread.i
  %16 = add i64 %13, 256
  br label %_ZNKSt7__cxx1112basic_stringIcSt11char_traitsIcESaIcEE8capacityEv.exit7.i.i

_ZNKSt7__cxx1112basic_stringIcSt11char_traitsIcESaIcEE8capacityEv.exit7.i.i: ; preds = %.thread.i, %_ZNKSt7__cxx1112basic_stringIcSt11char_traitsIcESaIcEE8capacityEv.exit.i.i
  %17 = phi i64 [ %16, %.thread.i ], [ 271, %_ZNKSt7__cxx1112basic_stringIcSt11char_traitsIcESaIcEE8capacityEv.exit.i.i ]
  tail call void @_ZNSt7__cxx1112basic_stringIcSt11char_traitsIcESaIcEE7reserveEm(ptr noundef nonnull align 8 dereferenceable(32) %8, i64 noundef %17)
  %.pre.i = load i64, ptr %12, align 8, !tbaa !21
  %.pre3.i = load ptr, ptr %8, align 8, !tbaa !23
  br label %_ZN9grpc_core12_GLOBAL__N_110JsonWriter11OutputCheckEm.exit.i

_ZN9grpc_core12_GLOBAL__N_110JsonWriter11OutputCheckEm.exit.i: ; preds = %_ZNKSt7__cxx1112basic_stringIcSt11char_traitsIcESaIcEE8capacityEv.exit7.i.i, %_ZNKSt7__cxx1112basic_stringIcSt11char_traitsIcESaIcEE8capacityEv.exit.i.thread.i, %_ZNKSt7__cxx1112basic_stringIcSt11char_traitsIcESaIcEE8capacityEv.exit.i.i
  %18 = phi ptr [ %9, %_ZNKSt7__cxx1112basic_stringIcSt11char_traitsIcESaIcEE8capacityEv.exit.i.thread.i ], [ %9, %_ZNKSt7__cxx1112basic_stringIcSt11char_traitsIcESaIcEE8capacityEv.exit.i.i ], [ %.pre3.i, %_ZNKSt7__cxx1112basic_stringIcSt11char_traitsIcESaIcEE8capacityEv.exit7.i.i ]
  %19 = phi i64 [ %13, %_ZNKSt7__cxx1112basic_stringIcSt11char_traitsIcESaIcEE8capacityEv.exit.i.thread.i ], [ %13, %_ZNKSt7__cxx1112basic_stringIcSt11char_traitsIcESaIcEE8capacityEv.exit.i.i ], [ %.pre.i, %_ZNKSt7__cxx1112basic_stringIcSt11char_traitsIcESaIcEE8capacityEv.exit7.i.i ]
  %20 = add i64 %19, 1
  %21 = icmp eq ptr %18, %10
  br i1 %21, label %22, label %_ZNKSt7__cxx1112basic_stringIcSt11char_traitsIcESaIcEE8capacityEv.exit.i1.i

22:                                               ; preds = %_ZN9grpc_core12_GLOBAL__N_110JsonWriter11OutputCheckEm.exit.i
  %23 = icmp ult i64 %19, 16
  tail call void @llvm.assume(i1 %23)
  br label %_ZNKSt7__cxx1112basic_stringIcSt11char_traitsIcESaIcEE8capacityEv.exit.i1.i

_ZNKSt7__cxx1112basic_stringIcSt11char_traitsIcESaIcEE8capacityEv.exit.i1.i: ; preds = %22, %_ZN9grpc_core12_GLOBAL__N_110JsonWriter11OutputCheckEm.exit.i
  %24 = load i64, ptr %10, align 8
  %25 = select i1 %21, i64 15, i64 %24
  %26 = icmp ugt i64 %20, %25
  br i1 %26, label %27, label %_ZN9grpc_core12_GLOBAL__N_110JsonWriter10OutputCharEc.exit

27:                                               ; preds = %_ZNKSt7__cxx1112basic_stringIcSt11char_traitsIcESaIcEE8capacityEv.exit.i1.i
  tail call void @_ZNSt7__cxx1112basic_stringIcSt11char_traitsIcESaIcEE9_M_mutateEmmPKcm(ptr noundef nonnull align 8 dereferenceable(32) %8, i64 noundef %19, i64 noundef 0, ptr noundef null, i64 noundef 1)
  %.pre.i.i = load ptr, ptr %8, align 8, !tbaa !23
  br label %_ZN9grpc_core12_GLOBAL__N_110JsonWriter10OutputCharEc.exit

_ZN9grpc_core12_GLOBAL__N_110JsonWriter10OutputCharEc.exit: ; preds = %_ZNKSt7__cxx1112basic_stringIcSt11char_traitsIcESaIcEE8capacityEv.exit.i1.i, %27
  %28 = phi ptr [ %.pre.i.i, %27 ], [ %18, %_ZNKSt7__cxx1112basic_stringIcSt11char_traitsIcESaIcEE8capacityEv.exit.i1.i ]
  %29 = icmp eq i32 %1, 4
  %30 = select i1 %29, i8 123, i8 91
  %31 = getelementptr inbounds nuw i8, ptr %28, i64 %19
  store i8 %30, ptr %31, align 1, !tbaa !22
  store i64 %20, ptr %12, align 8, !tbaa !21
  %32 = load ptr, ptr %8, align 8, !tbaa !23
  %33 = getelementptr inbounds nuw i8, ptr %32, i64 %20
  store i8 0, ptr %33, align 1, !tbaa !22
  %34 = getelementptr inbounds nuw i8, ptr %0, i64 8
  store i8 1, ptr %34, align 8, !tbaa !18
  store i8 0, ptr %3, align 1, !tbaa !19
  %35 = getelementptr inbounds nuw i8, ptr %0, i64 4
  %36 = load i32, ptr %35, align 4, !tbaa !17
  %37 = add nsw i32 %36, 1
  store i32 %37, ptr %35, align 4, !tbaa !17
  ret void
}